target datalayout = "e-m:e-p270:32:32-p271:32:32-p272:64:64-i64:64-i128:128-f80:128-n8:16:32:64-S128"
target triple = "x86_64-pc-linux-gnu"

%"class.vcg::Point3" = type { [3 x float] }
%"class.vcg::TrackMode" = type { ptr }
%"class.std::vector" = type { %"struct.std::_Vector_base" }
%"struct.std::_Vector_base" = type { %"struct.std::_Vector_base<vcg::Point3<float>, std::allocator<vcg::Point3<float>>>::_Vector_impl" }
%"struct.std::_Vector_base<vcg::Point3<float>, std::allocator<vcg::Point3<float>>>::_Vector_impl" = type { %"struct.std::_Vector_base<vcg::Point3<float>, std::allocator<vcg::Point3<float>>>::_Vector_impl_data" }
%"struct.std::_Vector_base<vcg::Point3<float>, std::allocator<vcg::Point3<float>>>::_Vector_impl_data" = type { ptr, ptr, ptr }
%"class.vcg::Plane3" = type { float, %"class.vcg::Point3" }
%"class.vcg::AreaMode" = type { %"class.vcg::TrackMode", %"class.std::vector", i8, i32, i32, float, %"class.vcg::Point3", %"class.vcg::Point3", %"class.vcg::Point3", %"class.vcg::Point3", %"class.vcg::Plane3", %"class.vcg::Point3", %"class.std::vector", i8, %"class.vcg::Point3", %"class.vcg::Point3", %"class.vcg::Point3", %"class.vcg::Point3", i64 }

; Function Attrs: mustprogress nounwind uwtable
define linkonce_odr noundef nonnull align 4 dereferenceable(12) ptr @_ZNSt6vectorIN3vcg6Point3IfEESaIS2_EEixEm(ptr noundef nonnull align 8 dereferenceable(24) %0, i64 noundef %1) #0 comdat align 2 {
  %3 = alloca ptr, align 8
  %4 = alloca i64, align 8
  store ptr %0, ptr %3, align 8
  store i64 %1, ptr %4, align 8
  %5 = load ptr, ptr %3, align 8
  %6 = getelementptr inbounds %"struct.std::_Vector_base", ptr %5, i32 0, i32 0
  %7 = getelementptr inbounds %"struct.std::_Vector_base<vcg::Point3<float>, std::allocator<vcg::Point3<float>>>::_Vector_impl_data", ptr %6, i32 0, i32 0
  %8 = load ptr, ptr %7, align 8
  %9 = load i64, ptr %4, align 8
  %10 = getelementptr inbounds %"class.vcg::Point3", ptr %8, i64 %9
  ret ptr %10
}

; Function Attrs: mustprogress nounwind uwtable
define linkonce_odr noundef i64 @_ZNKSt6vectorIN3vcg6Point3IfEESaIS2_EE4sizeEv(ptr noundef nonnull align 8 dereferenceable(24) %0) #0 comdat align 2 {
  %2 = alloca ptr, align 8
  store ptr %0, ptr %2, align 8
  %3 = load ptr, ptr %2, align 8
  %4 = getelementptr inbounds %"struct.std::_Vector_base", ptr %3, i32 0, i32 0
  %5 = getelementptr inbounds %"struct.std::_Vector_base<vcg::Point3<float>, std::allocator<vcg::Point3<float>>>::_Vector_impl_data", ptr %4, i32 0, i32 1
  %6 = load ptr, ptr %5, align 8
  %7 = getelementptr inbounds %"struct.std::_Vector_base", ptr %3, i32 0, i32 0
  %8 = getelementptr inbounds %"struct.std::_Vector_base<vcg::Point3<float>, std::allocator<vcg::Point3<float>>>::_Vector_impl_data", ptr %7, i32 0, i32 0
  %9 = load ptr, ptr %8, align 8
  %10 = ptrtoint ptr %6 to i64
  %11 = ptrtoint ptr %9 to i64
  %12 = sub i64 %10, %11
  %13 = sdiv exact i64 %12, 12
  ret i64 %13
}

; Function Attrs: mustprogress nounwind uwtable
define linkonce_odr noundef nonnull align 4 dereferenceable(4) ptr @_ZN3vcg6Point3IfEixEi(ptr noundef nonnull align 4 dereferenceable(12) %0, i32 noundef %1) #0 comdat align 2 {
  %3 = alloca ptr, align 8
  %4 = alloca i32, align 4
  store ptr %0, ptr %3, align 8
  store i32 %1, ptr %4, align 4
  %5 = load ptr, ptr %3, align 8
  %6 = getelementptr inbounds %"class.vcg::Point3", ptr %5, i32 0, i32 0
  %7 = load i32, ptr %4, align 4
  %8 = sext i32 %7 to i64
  %9 = getelementptr inbounds [3 x float], ptr %6, i64 0, i64 %8
  ret ptr %9
}

; Function Attrs: mustprogress nounwind uwtable
define noundef zeroext i1 @_ZN3vcg8AreaMode6InsideENS_6Point3IfEE(ptr noundef nonnull align 8 dereferenceable(216) %0, <2 x float> %1, float %2) #1 align 2 {
  %4 = alloca %"class.vcg::Point3", align 4
  %5 = alloca { <2 x float>, float }, align 4
  %6 = alloca ptr, align 8
  %7 = alloca i8, align 1
  %8 = alloca float, align 4
  %9 = alloca float, align 4
  %10 = alloca float, align 4
  %11 = alloca float, align 4
  %12 = alloca float, align 4
  %13 = alloca float, align 4
  %14 = alloca i32, align 4
  %15 = alloca i32, align 4
  %16 = alloca i32, align 4
  %17 = getelementptr inbounds { <2 x float>, float }, ptr %5, i32 0, i32 0
  store <2 x float> %1, ptr %17, align 4
  %18 = getelementptr inbounds { <2 x float>, float }, ptr %5, i32 0, i32 1
  store float %2, ptr %18, align 4
  call void @llvm.memcpy.p0.p0.i64(ptr align 4 %4, ptr align 4 %5, i64 12, i1 false)
  store ptr %0, ptr %6, align 8
  %19 = load ptr, ptr %6, align 8
  store i8 0, ptr %7, align 1
  %20 = getelementptr inbounds %"class.vcg::AreaMode", ptr %19, i32 0, i32 3
  %21 = load i32, ptr %20, align 4
  %22 = call noundef nonnull align 4 dereferenceable(4) ptr @_ZN3vcg6Point3IfEixEi(ptr noundef nonnull align 4 dereferenceable(12) %4, i32 noundef %21)
  %23 = load float, ptr %22, align 4
  store float %23, ptr %8, align 4
  %24 = getelementptr inbounds %"class.vcg::AreaMode", ptr %19, i32 0, i32 4
  %25 = load i32, ptr %24, align 8
  %26 = call noundef nonnull align 4 dereferenceable(4) ptr @_ZN3vcg6Point3IfEixEi(ptr noundef nonnull align 4 dereferenceable(12) %4, i32 noundef %25)
  %27 = load float, ptr %26, align 4
  store float %27, ptr %9, align 4
  %28 = getelementptr inbounds %"class.vcg::AreaMode", ptr %19, i32 0, i32 1
  %29 = call noundef i64 @_ZNKSt6vectorIN3vcg6Point3IfEESaIS2_EE4sizeEv(ptr noundef nonnull align 8 dereferenceable(24) %28) #7
  %30 = trunc i64 %29 to i32
  store i32 %30, ptr %16, align 4
  store i32 0, ptr %14, align 4
  %31 = load i32, ptr %16, align 4
  %32 = sub nsw i32 %31, 1
  store i32 %32, ptr %15, align 4
  br label %33

33:                                               ; preds = %107, %3
  %34 = load i32, ptr %14, align 4
  %35 = load i32, ptr %16, align 4
  %36 = icmp slt i32 %34, %35
  br i1 %36, label %37, label %110

37:                                               ; preds = %33
  %38 = getelementptr inbounds %"class.vcg::AreaMode", ptr %19, i32 0, i32 1
  %39 = load i32, ptr %14, align 4
  %40 = sext i32 %39 to i64
  %41 = call noundef nonnull align 4 dereferenceable(12) ptr @_ZNSt6vectorIN3vcg6Point3IfEESaIS2_EEixEm(ptr noundef nonnull align 8 dereferenceable(24) %38, i64 noundef %40) #7
  %42 = getelementptr inbounds %"class.vcg::AreaMode", ptr %19, i32 0, i32 3
  %43 = load i32, ptr %42, align 4
  %44 = call noundef nonnull align 4 dereferenceable(4) ptr @_ZN3vcg6Point3IfEixEi(ptr noundef nonnull align 4 dereferenceable(12) %41, i32 noundef %43)
  %45 = load float, ptr %44, align 4
  store float %45, ptr %12, align 4
  %46 = getelementptr inbounds %"class.vcg::AreaMode", ptr %19, i32 0, i32 1
  %47 = load i32, ptr %14, align 4
  %48 = sext i32 %47 to i64
  %49 = call noundef nonnull align 4 dereferenceable(12) ptr @_ZNSt6vectorIN3vcg6Point3IfEESaIS2_EEixEm(ptr noundef nonnull align 8 dereferenceable(24) %46, i64 noundef %48) #7
  %50 = getelementptr inbounds %"class.vcg::AreaMode", ptr %19, i32 0, i32 4
  %51 = load i32, ptr %50, align 8
  %52 = call noundef nonnull align 4 dereferenceable(4) ptr @_ZN3vcg6Point3IfEixEi(ptr noundef nonnull align 4 dereferenceable(12) %49, i32 noundef %51)
  %53 = load float, ptr %52, align 4
  store float %53, ptr %10, align 4
  %54 = getelementptr inbounds %"class.vcg::AreaMode", ptr %19, i32 0, i32 1
  %55 = load i32, ptr %15, align 4
  %56 = sext i32 %55 to i64
  %57 = call noundef nonnull align 4 dereferenceable(12) ptr @_ZNSt6vectorIN3vcg6Point3IfEESaIS2_EEixEm(ptr noundef nonnull align 8 dereferenceable(24) %54, i64 noundef %56) #7
  %58 = getelementptr inbounds %"class.vcg::AreaMode", ptr %19, i32 0, i32 3
  %59 = load i32, ptr %58, align 4
  %60 = call noundef nonnull align 4 dereferenceable(4) ptr @_ZN3vcg6Point3IfEixEi(ptr noundef nonnull align 4 dereferenceable(12) %57, i32 noundef %59)
  %61 = load float, ptr %60, align 4
  store float %61, ptr %13, align 4
  %62 = getelementptr inbounds %"class.vcg::AreaMode", ptr %19, i32 0, i32 1
  %63 = load i32, ptr %15, align 4
  %64 = sext i32 %63 to i64
  %65 = call noundef nonnull align 4 dereferenceable(12) ptr @_ZNSt6vectorIN3vcg6Point3IfEESaIS2_EEixEm(ptr noundef nonnull align 8 dereferenceable(24) %62, i64 noundef %64) #7
  %66 = getelementptr inbounds %"class.vcg::AreaMode", ptr %19, i32 0, i32 4
  %67 = load i32, ptr %66, align 8
  %68 = call noundef nonnull align 4 dereferenceable(4) ptr @_ZN3vcg6Point3IfEixEi(ptr noundef nonnull align 4 dereferenceable(12) %65, i32 noundef %67)
  %69 = load float, ptr %68, align 4
  store float %69, ptr %11, align 4
  %70 = load float, ptr %10, align 4
  %71 = load float, ptr %9, align 4
  %72 = fcmp ole float %70, %71
  br i1 %72, label %73, label %77

73:                                               ; preds = %37
  %74 = load float, ptr %9, align 4
  %75 = load float, ptr %11, align 4
  %76 = fcmp olt float %74, %75
  br i1 %76, label %85, label %77

77:                                               ; preds = %73, %37
  %78 = load float, ptr %11, align 4
  %79 = load float, ptr %9, align 4
  %80 = fcmp ole float %78, %79
  br i1 %80, label %81, label %106

81:                                               ; preds = %77
  %82 = load float, ptr %9, align 4
  %83 = load float, ptr %10, align 4
  %84 = fcmp olt float %82, %83
  br i1 %84, label %85, label %106

85:                                               ; preds = %81, %73
  %86 = load float, ptr %8, align 4
  %87 = load float, ptr %13, align 4
  %88 = load float, ptr %12, align 4
  %89 = fsub float %87, %88
  %90 = load float, ptr %9, align 4
  %91 = load float, ptr %10, align 4
  %92 = fsub float %90, %91
  %93 = fmul float %89, %92
  %94 = load float, ptr %11, align 4
  %95 = load float, ptr %10, align 4
  %96 = fsub float %94, %95
  %97 = fdiv float %93, %96
  %98 = load float, ptr %12, align 4
  %99 = fadd float %97, %98
  %100 = fcmp olt float %86, %99
  br i1 %100, label %101, label %106

101:                                              ; preds = %85
  %102 = load i8, ptr %7, align 1
  %103 = trunc i8 %102 to i1
  %104 = xor i1 %103, true
  %105 = zext i1 %104 to i8
  store i8 %105, ptr %7, align 1
  br label %106

106:                                              ; preds = %101, %85, %81, %77
  br label %107

107:                                              ; preds = %106
  %108 = load i32, ptr %14, align 4
  %109 = add nsw i32 %108, 1
  store i32 %109, ptr %14, align 4
  store i32 %108, ptr %15, align 4
  br label %33, !llvm.loop !39

110:                                              ; preds = %33
  %111 = load i8, ptr %7, align 1
  %112 = trunc i8 %111 to i1
  ret i1 %112
}