; Function Attrs: mustprogress nofree norecurse nosync nounwind willreturn memory(read, inaccessiblemem: none) uwtable
define noundef zeroext i1 @_ZN3vcg8AreaMode6InsideENS_6Point3IfEE(ptr nocapture noundef nonnull readonly align 8 dereferenceable(216) %0, <2 x float> %1, float %2) local_unnamed_addr #27 align 2 {
  %4 = alloca %"class.vcg::Point3", align 8
  store <2 x float> %1, ptr %4, align 8
  %.sroa.2.0..sroa_idx = getelementptr inbounds i8, ptr %4, i64 8
  store float %2, ptr %.sroa.2.0..sroa_idx, align 8
  %5 = getelementptr inbounds i8, ptr %0, i64 36
  %6 = load i32, ptr %5, align 4
  %7 = sext i32 %6 to i64
  %8 = getelementptr inbounds [3 x float], ptr %4, i64 0, i64 %7
  %9 = load float, ptr %8, align 4
  %10 = getelementptr inbounds i8, ptr %0, i64 40
  %11 = load i32, ptr %10, align 8
  %12 = sext i32 %11 to i64
  %13 = getelementptr inbounds [3 x float], ptr %4, i64 0, i64 %12
  %14 = load float, ptr %13, align 4
  %15 = getelementptr inbounds i8, ptr %0, i64 8
  %16 = getelementptr inbounds i8, ptr %0, i64 16
  %17 = load ptr, ptr %16, align 8
  %18 = load ptr, ptr %15, align 8
  %19 = ptrtoint ptr %17 to i64
  %20 = ptrtoint ptr %18 to i64
  %21 = sub i64 %19, %20
  %22 = sdiv exact i64 %21, 12
  %23 = trunc i64 %22 to i32
  %24 = icmp sgt i32 %23, 0
  br i1 %24, label %.lr.ph.preheader, label %._crit_edge

.lr.ph.preheader:                                 ; preds = %3
  %25 = add nsw i64 %22, -1
  %wide.trip.count = and i64 %22, 2147483647
  br label %.lr.ph

.lr.ph:                                           ; preds = %.lr.ph.preheader, %52
  %indvars.iv = phi i64 [ 0, %.lr.ph.preheader ], [ %indvars.iv.next, %52 ]
  %.033 = phi i8 [ 0, %.lr.ph.preheader ], [ %.1, %52 ]
  %.02632 = phi i64 [ %25, %.lr.ph.preheader ], [ %indvars.iv, %52 ]
  %26 = getelementptr inbounds %"class.vcg::Point3", ptr %18, i64 %indvars.iv
  %27 = getelementptr inbounds [3 x float], ptr %26, i64 0, i64 %7
  %28 = load float, ptr %27, align 4
  %29 = getelementptr inbounds [3 x float], ptr %26, i64 0, i64 %12
  %30 = load float, ptr %29, align 4
  %sext = shl i64 %.02632, 32
  %31 = ashr exact i64 %sext, 32
  %32 = getelementptr inbounds %"class.vcg::Point3", ptr %18, i64 %31
  %33 = getelementptr inbounds [3 x float], ptr %32, i64 0, i64 %7
  %34 = load float, ptr %33, align 4
  %35 = getelementptr inbounds [3 x float], ptr %32, i64 0, i64 %12
  %36 = load float, ptr %35, align 4
  %37 = fcmp ole float %30, %14
  %38 = fcmp olt float %14, %36
  %or.cond = select i1 %37, i1 %38, i1 false
  br i1 %or.cond, label %42, label %39

39:                                               ; preds = %.lr.ph
  %40 = fcmp ole float %36, %14
  %41 = fcmp olt float %14, %30
  %or.cond30 = and i1 %41, %40
  br i1 %or.cond30, label %42, label %52

42:                                               ; preds = %39, %.lr.ph
  %43 = fsub float %34, %28
  %44 = fsub float %14, %30
  %45 = fmul float %44, %43
  %46 = fsub float %36, %30
  %47 = fdiv float %45, %46
  %48 = fadd float %28, %47
  %49 = fcmp olt float %9, %48
  br i1 %49, label %50, label %52

50:                                               ; preds = %42
  %51 = xor i8 %.033, 1
  br label %52

52:                                               ; preds = %39, %42, %50
  %.1 = phi i8 [ %51, %50 ], [ %.033, %42 ], [ %.033, %39 ]
  %indvars.iv.next = add nuw nsw i64 %indvars.iv, 1
  %exitcond.not = icmp eq i64 %indvars.iv.next, %wide.trip.count
  br i1 %exitcond.not, label %._crit_edge.loopexit, label %.lr.ph, !llvm.loop !172

._crit_edge.loopexit:                             ; preds = %52
  %53 = and i8 %.1, 1
  %54 = icmp ne i8 %53, 0
  br label %._crit_edge

._crit_edge:                                      ; preds = %._crit_edge.loopexit, %3
  %.0.lcssa = phi i1 [ false, %3 ], [ %54, %._crit_edge.loopexit ]
  ret i1 %.0.lcssa
}